target datalayout = "e-m:e-p270:32:32-p271:32:32-p272:64:64-i64:64-i128:128-f80:128-n8:16:32:64-S128"
target triple = "x86_64-pc-linux-gnu"

%union.Value = type { ptr }
%struct.Table = type { ptr, i8, i8, i8, i8, i32, ptr, ptr, ptr, ptr }
%struct.TValue = type { %union.Value, i8 }
%union.Node = type { %struct.NodeKey }
%struct.NodeKey = type { %union.Value, i8, i8, i32, %union.Value }
%struct.TString = type { ptr, i8, i8, i8, i8, i32, %union.anon, ptr, ptr, ptr }
%union.anon = type { i64 }

@absentkey = internal constant { %union.Value, i8, [7 x i8] } { %union.Value zeroinitializer, i8 32, [7 x i8] zeroinitializer }, align 8

; Function Attrs: nounwind uwtable
define internal ptr @Hgetlongstr(ptr noundef %0, ptr noundef %1) #0 {
  %3 = alloca ptr, align 8
  %4 = alloca ptr, align 8
  %5 = alloca %struct.TValue, align 8
  %6 = alloca ptr, align 8
  %7 = alloca ptr, align 8
  store ptr %0, ptr %3, align 8, !tbaa !9
  store ptr %1, ptr %4, align 8, !tbaa !40
  call void @llvm.lifetime.start.p0(i64 16, ptr %5) #8
  call void @llvm.lifetime.start.p0(i64 8, ptr %6) #8
  store ptr %5, ptr %6, align 8, !tbaa !22
  call void @llvm.lifetime.start.p0(i64 8, ptr %7) #8
  %8 = load ptr, ptr %4, align 8, !tbaa !40
  store ptr %8, ptr %7, align 8, !tbaa !40
  %9 = load ptr, ptr %7, align 8, !tbaa !40
  %10 = load ptr, ptr %6, align 8, !tbaa !22
  %11 = getelementptr inbounds nuw %struct.TValue, ptr %10, i32 0, i32 0
  store ptr %9, ptr %11, align 8, !tbaa !21
  %12 = load ptr, ptr %7, align 8, !tbaa !40
  %13 = getelementptr inbounds nuw %struct.TString, ptr %12, i32 0, i32 1
  %14 = load i8, ptr %13, align 8, !tbaa !47
  %15 = zext i8 %14 to i32
  %16 = or i32 %15, 64
  %17 = trunc i32 %16 to i8
  %18 = load ptr, ptr %6, align 8, !tbaa !22
  %19 = getelementptr inbounds nuw %struct.TValue, ptr %18, i32 0, i32 1
  store i8 %17, ptr %19, align 8, !tbaa !24
  call void @llvm.lifetime.end.p0(i64 8, ptr %7) #8
  call void @llvm.lifetime.end.p0(i64 8, ptr %6) #8
  %20 = load ptr, ptr %3, align 8, !tbaa !9
  %21 = call ptr @getgeneric(ptr noundef %20, ptr noundef %5, i32 noundef 0)
  call void @llvm.lifetime.end.p0(i64 16, ptr %5) #8
  ret ptr %21
}

; Function Attrs: nounwind uwtable
define hidden ptr @luaH_Hgetshortstr(ptr noundef %0, ptr noundef %1) #0 {
  %3 = alloca ptr, align 8
  %4 = alloca ptr, align 8
  %5 = alloca ptr, align 8
  %6 = alloca ptr, align 8
  %7 = alloca i32, align 4
  %8 = alloca i32, align 4
  store ptr %0, ptr %4, align 8, !tbaa !9
  store ptr %1, ptr %5, align 8, !tbaa !40
  call void @llvm.lifetime.start.p0(i64 8, ptr %6) #8
  %9 = load ptr, ptr %4, align 8, !tbaa !9
  %10 = getelementptr inbounds nuw %struct.Table, ptr %9, i32 0, i32 7
  %11 = load ptr, ptr %10, align 8, !tbaa !28
  %12 = load ptr, ptr %5, align 8, !tbaa !40
  %13 = getelementptr inbounds nuw %struct.TString, ptr %12, i32 0, i32 5
  %14 = load i32, ptr %13, align 4, !tbaa !42
  %15 = load ptr, ptr %4, align 8, !tbaa !9
  %16 = getelementptr inbounds nuw %struct.Table, ptr %15, i32 0, i32 4
  %17 = load i8, ptr %16, align 1, !tbaa !27
  %18 = zext i8 %17 to i32
  %19 = shl i32 1, %18
  %20 = sub i32 %19, 1
  %21 = and i32 %14, %20
  %22 = zext i32 %21 to i64
  %23 = getelementptr inbounds nuw %union.Node, ptr %11, i64 %22
  store ptr %23, ptr %6, align 8, !tbaa !29
  br label %24

24:                                               ; preds = %53, %2
  %25 = load ptr, ptr %6, align 8, !tbaa !29
  %26 = getelementptr inbounds nuw %struct.NodeKey, ptr %25, i32 0, i32 2
  %27 = load i8, ptr %26, align 1, !tbaa !21
  %28 = zext i8 %27 to i32
  %29 = icmp eq i32 %28, 68
  br i1 %29, label %30, label %38

30:                                               ; preds = %24
  %31 = load ptr, ptr %6, align 8, !tbaa !29
  %32 = getelementptr inbounds nuw %struct.NodeKey, ptr %31, i32 0, i32 4
  %33 = load ptr, ptr %32, align 8, !tbaa !21
  %34 = load ptr, ptr %5, align 8, !tbaa !40
  %35 = icmp eq ptr %33, %34
  br i1 %35, label %36, label %38

36:                                               ; preds = %30
  %37 = load ptr, ptr %6, align 8, !tbaa !29
  store ptr %37, ptr %3, align 8
  store i32 1, ptr %7, align 4
  br label %54

38:                                               ; preds = %30, %24
  call void @llvm.lifetime.start.p0(i64 4, ptr %8) #8
  %39 = load ptr, ptr %6, align 8, !tbaa !29
  %40 = getelementptr inbounds nuw %struct.NodeKey, ptr %39, i32 0, i32 3
  %41 = load i32, ptr %40, align 4, !tbaa !21
  store i32 %41, ptr %8, align 4, !tbaa !19
  %42 = load i32, ptr %8, align 4, !tbaa !19
  %43 = icmp eq i32 %42, 0
  br i1 %43, label %44, label %45

44:                                               ; preds = %38
  store ptr @absentkey, ptr %3, align 8
  store i32 1, ptr %7, align 4
  br label %50

45:                                               ; preds = %38
  %46 = load i32, ptr %8, align 4, !tbaa !19
  %47 = load ptr, ptr %6, align 8, !tbaa !29
  %48 = sext i32 %46 to i64
  %49 = getelementptr inbounds %union.Node, ptr %47, i64 %48
  store ptr %49, ptr %6, align 8, !tbaa !29
  store i32 0, ptr %7, align 4
  br label %50

50:                                               ; preds = %45, %44
  call void @llvm.lifetime.end.p0(i64 4, ptr %8) #8
  %51 = load i32, ptr %7, align 4
  switch i32 %51, label %54 [
    i32 0, label %52
  ]

52:                                               ; preds = %50
  br label %53

53:                                               ; preds = %52
  br label %24

54:                                               ; preds = %50, %36
  call void @llvm.lifetime.end.p0(i64 8, ptr %6) #8
  %55 = load ptr, ptr %3, align 8
  ret ptr %55
}

; Function Attrs: nounwind uwtable
define internal zeroext i8 @finishnodeget(ptr noundef %0, ptr noundef %1) #0 {
  %3 = alloca ptr, align 8
  %4 = alloca ptr, align 8
  %5 = alloca ptr, align 8
  %6 = alloca ptr, align 8
  store ptr %0, ptr %3, align 8, !tbaa !22
  store ptr %1, ptr %4, align 8, !tbaa !22
  %7 = load ptr, ptr %3, align 8, !tbaa !22
  %8 = getelementptr inbounds nuw %struct.TValue, ptr %7, i32 0, i32 1
  %9 = load i8, ptr %8, align 8, !tbaa !24
  %10 = zext i8 %9 to i32
  %11 = and i32 %10, 15
  %12 = icmp eq i32 %11, 0
  br i1 %12, label %25, label %13

13:                                               ; preds = %2
  call void @llvm.lifetime.start.p0(i64 8, ptr %5) #8
  %14 = load ptr, ptr %4, align 8, !tbaa !22
  store ptr %14, ptr %5, align 8, !tbaa !22
  call void @llvm.lifetime.start.p0(i64 8, ptr %6) #8
  %15 = load ptr, ptr %3, align 8, !tbaa !22
  store ptr %15, ptr %6, align 8, !tbaa !22
  %16 = load ptr, ptr %5, align 8, !tbaa !22
  %17 = getelementptr inbounds nuw %struct.TValue, ptr %16, i32 0, i32 0
  %18 = load ptr, ptr %6, align 8, !tbaa !22
  %19 = getelementptr inbounds nuw %struct.TValue, ptr %18, i32 0, i32 0
  call void @llvm.memcpy.p0.p0.i64(ptr align 8 %17, ptr align 8 %19, i64 8, i1 false), !tbaa.struct !26
  %20 = load ptr, ptr %6, align 8, !tbaa !22
  %21 = getelementptr inbounds nuw %struct.TValue, ptr %20, i32 0, i32 1
  %22 = load i8, ptr %21, align 8, !tbaa !24
  %23 = load ptr, ptr %5, align 8, !tbaa !22
  %24 = getelementptr inbounds nuw %struct.TValue, ptr %23, i32 0, i32 1
  store i8 %22, ptr %24, align 8, !tbaa !24
  call void @llvm.lifetime.end.p0(i64 8, ptr %6) #8
  call void @llvm.lifetime.end.p0(i64 8, ptr %5) #8
  br label %25

25:                                               ; preds = %13, %2
  %26 = load ptr, ptr %3, align 8, !tbaa !22
  %27 = getelementptr inbounds nuw %struct.TValue, ptr %26, i32 0, i32 1
  %28 = load i8, ptr %27, align 8, !tbaa !24
  %29 = zext i8 %28 to i32
  %30 = and i32 %29, 63
  %31 = trunc i32 %30 to i8
  ret i8 %31
}

; Function Attrs: nounwind uwtable
define internal ptr @Hgetstr(ptr noundef %0, ptr noundef %1) #0 {
  %3 = alloca ptr, align 8
  %4 = alloca ptr, align 8
  %5 = alloca ptr, align 8
  store ptr %0, ptr %4, align 8, !tbaa !9
  store ptr %1, ptr %5, align 8, !tbaa !40
  %6 = load ptr, ptr %5, align 8, !tbaa !40
  %7 = getelementptr inbounds nuw %struct.TString, ptr %6, i32 0, i32 4
  %8 = load i8, ptr %7, align 1, !tbaa !44
  %9 = sext i8 %8 to i32
  %10 = icmp sge i32 %9, 0
  br i1 %10, label %11, label %15

11:                                               ; preds = %2
  %12 = load ptr, ptr %4, align 8, !tbaa !9
  %13 = load ptr, ptr %5, align 8, !tbaa !40
  %14 = call ptr @luaH_Hgetshortstr(ptr noundef %12, ptr noundef %13)
  store ptr %14, ptr %3, align 8
  br label %19

15:                                               ; preds = %2
  %16 = load ptr, ptr %4, align 8, !tbaa !9
  %17 = load ptr, ptr %5, align 8, !tbaa !40
  %18 = call ptr @Hgetlongstr(ptr noundef %16, ptr noundef %17)
  store ptr %18, ptr %3, align 8
  br label %19

19:                                               ; preds = %15, %11
  %20 = load ptr, ptr %3, align 8
  ret ptr %20
}

; Function Attrs: nounwind uwtable
define hidden zeroext i8 @luaH_getstr(ptr noundef %0, ptr noundef %1, ptr noundef %2) #0 {
  %4 = alloca ptr, align 8
  %5 = alloca ptr, align 8
  %6 = alloca ptr, align 8
  store ptr %0, ptr %4, align 8, !tbaa !9
  store ptr %1, ptr %5, align 8, !tbaa !40
  store ptr %2, ptr %6, align 8, !tbaa !22
  %7 = load ptr, ptr %4, align 8, !tbaa !9
  %8 = load ptr, ptr %5, align 8, !tbaa !40
  %9 = call ptr @Hgetstr(ptr noundef %7, ptr noundef %8)
  %10 = load ptr, ptr %6, align 8, !tbaa !22
  %11 = call zeroext i8 @finishnodeget(ptr noundef %9, ptr noundef %10)
  ret i8 %11
}