; Function Attrs: nounwind uwtable
define hidden zeroext range(i8 0, 64) i8 @luaH_getstr(ptr noundef readonly captures(none) %0, ptr noundef %1, ptr noundef writeonly captures(none) %2) local_unnamed_addr #0 {
  %4 = alloca %struct.TValue, align 8
  %5 = getelementptr inbounds nuw i8, ptr %1, i64 11
  %6 = load i8, ptr %5, align 1, !tbaa !28
  %7 = icmp sgt i8 %6, -1
  br i1 %7, label %8, label %33

8:                                                ; preds = %3
  %9 = getelementptr inbounds nuw i8, ptr %0, i64 24
  %10 = load ptr, ptr %9, align 8, !tbaa !18
  %11 = getelementptr inbounds nuw i8, ptr %1, i64 12
  %12 = load i32, ptr %11, align 4, !tbaa !25
  %13 = getelementptr inbounds nuw i8, ptr %0, i64 11
  %14 = load i8, ptr %13, align 1, !tbaa !20
  %15 = zext nneg i8 %14 to i32
  %notmask.i.i = shl nsw i32 -1, %15
  %16 = xor i32 %notmask.i.i, -1
  %17 = and i32 %12, %16
  %18 = zext nneg i32 %17 to i64
  %19 = getelementptr inbounds nuw %union.Node, ptr %10, i64 %18
  br label %20

20:                                               ; preds = %28, %8
  %.013.i.i = phi ptr [ %19, %8 ], [ %32, %28 ]
  %21 = getelementptr inbounds nuw i8, ptr %.013.i.i, i64 9
  %22 = load i8, ptr %21, align 1, !tbaa !16
  %23 = icmp eq i8 %22, 68
  br i1 %23, label %24, label %28

24:                                               ; preds = %20
  %25 = getelementptr inbounds nuw i8, ptr %.013.i.i, i64 16
  %26 = load ptr, ptr %25, align 8, !tbaa !16
  %27 = icmp eq ptr %26, %1
  br i1 %27, label %Hgetstr.exit, label %28

28:                                               ; preds = %24, %20
  %29 = getelementptr inbounds nuw i8, ptr %.013.i.i, i64 12
  %30 = load i32, ptr %29, align 4, !tbaa !16
  %.not.i.i = icmp eq i32 %30, 0
  %31 = sext i32 %30 to i64
  %32 = getelementptr inbounds %union.Node, ptr %.013.i.i, i64 %31
  br i1 %.not.i.i, label %Hgetstr.exit, label %20

33:                                               ; preds = %3
  call void @llvm.lifetime.start.p0(i64 16, ptr nonnull %4) #13
  store ptr %1, ptr %4, align 8, !tbaa !16
  %34 = getelementptr inbounds nuw i8, ptr %1, i64 8
  %35 = load i8, ptr %34, align 8, !tbaa !29
  %36 = or i8 %35, 64
  %37 = getelementptr inbounds nuw i8, ptr %4, i64 8
  store i8 %36, ptr %37, align 8, !tbaa !14
  %38 = call fastcc ptr @getgeneric(ptr noundef readonly %0, ptr noundef nonnull %4, i32 noundef 0)
  call void @llvm.lifetime.end.p0(i64 16, ptr nonnull %4) #13
  br label %Hgetstr.exit

Hgetstr.exit:                                     ; preds = %24, %28, %33
  %.0.i = phi ptr [ %38, %33 ], [ @absentkey, %28 ], [ %.013.i.i, %24 ]
  %39 = getelementptr inbounds nuw i8, ptr %.0.i, i64 8
  %40 = load i8, ptr %39, align 8, !tbaa !14
  %41 = and i8 %40, 15
  %42 = icmp eq i8 %41, 0
  br i1 %42, label %finishnodeget.exit, label %43

43:                                               ; preds = %Hgetstr.exit
  %44 = load i64, ptr %.0.i, align 8, !tbaa !16
  store i64 %44, ptr %2, align 8, !tbaa !16
  %45 = load i8, ptr %39, align 8, !tbaa !14
  %46 = getelementptr inbounds nuw i8, ptr %2, i64 8
  store i8 %45, ptr %46, align 8, !tbaa !14
  br label %finishnodeget.exit

finishnodeget.exit:                               ; preds = %Hgetstr.exit, %43
  %47 = phi i8 [ %45, %43 ], [ %40, %Hgetstr.exit ]
  %48 = and i8 %47, 63
  ret i8 %48
}